target datalayout = "e-m:e-p270:32:32-p271:32:32-p272:64:64-i64:64-i128:128-f80:128-n8:16:32:64-S128"
target triple = "x86_64-pc-linux-gnu"

%struct.ASN1_ITEM_st = type { i8, i64, ptr, i64, ptr, i64, ptr }
%struct.X509_req_st = type { ptr, ptr, ptr, i32 }
%struct.X509_req_info_st = type { %struct.ASN1_ENCODING_st, ptr, ptr, ptr, ptr }
%struct.ASN1_ENCODING_st = type { ptr, i64, i32 }
%struct.asn1_string_st = type { i32, i32, ptr, i64 }
%struct.x509_attributes_st = type { ptr, i32, %union.anon.0 }
%union.anon.0 = type { ptr }
%struct.asn1_type_st = type { i32, %union.anon.1 }
%union.anon.1 = type { ptr }

@ext_nids = internal global ptr @ext_nid_list, align 8
@X509_EXTENSIONS_it = external constant %struct.ASN1_ITEM_st, align 8

; Function Attrs: nounwind uwtable
define hidden ptr @X509_REQ_get_attr(ptr noundef %0, i32 noundef %1) #0 {
  %3 = alloca ptr, align 8
  %4 = alloca i32, align 4
  store ptr %0, ptr %3, align 8, !tbaa !15
  store i32 %1, ptr %4, align 4, !tbaa !36
  %5 = load ptr, ptr %3, align 8, !tbaa !15
  %6 = getelementptr inbounds nuw %struct.X509_req_st, ptr %5, i32 0, i32 0
  %7 = load ptr, ptr %6, align 8, !tbaa !17
  %8 = getelementptr inbounds nuw %struct.X509_req_info_st, ptr %7, i32 0, i32 4
  %9 = load ptr, ptr %8, align 8, !tbaa !55
  %10 = load i32, ptr %4, align 4, !tbaa !36
  %11 = call ptr @X509at_get_attr(ptr noundef %9, i32 noundef %10)
  ret ptr %11
}

; Function Attrs: nounwind uwtable
define hidden i32 @X509_REQ_get_attr_by_NID(ptr noundef %0, i32 noundef %1, i32 noundef %2) #0 {
  %4 = alloca ptr, align 8
  %5 = alloca i32, align 4
  %6 = alloca i32, align 4
  store ptr %0, ptr %4, align 8, !tbaa !15
  store i32 %1, ptr %5, align 4, !tbaa !36
  store i32 %2, ptr %6, align 4, !tbaa !36
  %7 = load ptr, ptr %4, align 8, !tbaa !15
  %8 = getelementptr inbounds nuw %struct.X509_req_st, ptr %7, i32 0, i32 0
  %9 = load ptr, ptr %8, align 8, !tbaa !17
  %10 = getelementptr inbounds nuw %struct.X509_req_info_st, ptr %9, i32 0, i32 4
  %11 = load ptr, ptr %10, align 8, !tbaa !55
  %12 = load i32, ptr %5, align 4, !tbaa !36
  %13 = load i32, ptr %6, align 4, !tbaa !36
  %14 = call i32 @X509at_get_attr_by_NID(ptr noundef %11, i32 noundef %12, i32 noundef %13)
  ret i32 %14
}

; Function Attrs: nounwind uwtable
define hidden ptr @X509_REQ_get_extensions(ptr noundef %0) #0 {
  %2 = alloca ptr, align 8
  %3 = alloca ptr, align 8
  %4 = alloca ptr, align 8
  %5 = alloca ptr, align 8
  %6 = alloca i32, align 4
  %7 = alloca ptr, align 8
  %8 = alloca ptr, align 8
  %9 = alloca i32, align 4
  store ptr %0, ptr %3, align 8, !tbaa !15
  call void @llvm.lifetime.start.p0(i64 8, ptr %4) #4
  call void @llvm.lifetime.start.p0(i64 8, ptr %5) #4
  store ptr null, ptr %5, align 8, !tbaa !43
  call void @llvm.lifetime.start.p0(i64 4, ptr %6) #4
  call void @llvm.lifetime.start.p0(i64 8, ptr %7) #4
  call void @llvm.lifetime.start.p0(i64 8, ptr %8) #4
  %10 = load ptr, ptr %3, align 8, !tbaa !15
  %11 = icmp eq ptr %10, null
  br i1 %11, label %20, label %12

12:                                               ; preds = %1
  %13 = load ptr, ptr %3, align 8, !tbaa !15
  %14 = getelementptr inbounds nuw %struct.X509_req_st, ptr %13, i32 0, i32 0
  %15 = load ptr, ptr %14, align 8, !tbaa !17
  %16 = icmp eq ptr %15, null
  br i1 %16, label %20, label %17

17:                                               ; preds = %12
  %18 = load ptr, ptr @ext_nids, align 8, !tbaa !41
  %19 = icmp ne ptr %18, null
  br i1 %19, label %21, label %20

20:                                               ; preds = %17, %12, %1
  store ptr null, ptr %2, align 8
  store i32 1, ptr %9, align 4
  br label %85

21:                                               ; preds = %17
  %22 = load ptr, ptr @ext_nids, align 8, !tbaa !41
  store ptr %22, ptr %7, align 8, !tbaa !41
  br label %23

23:                                               ; preds = %60, %21
  %24 = load ptr, ptr %7, align 8, !tbaa !41
  %25 = load i32, ptr %24, align 4, !tbaa !36
  %26 = icmp ne i32 %25, 0
  br i1 %26, label %27, label %63

27:                                               ; preds = %23
  %28 = load ptr, ptr %3, align 8, !tbaa !15
  %29 = load ptr, ptr %7, align 8, !tbaa !41
  %30 = load i32, ptr %29, align 4, !tbaa !36
  %31 = call i32 @X509_REQ_get_attr_by_NID(ptr noundef %28, i32 noundef %30, i32 noundef -1)
  store i32 %31, ptr %6, align 4, !tbaa !36
  %32 = load i32, ptr %6, align 4, !tbaa !36
  %33 = icmp eq i32 %32, -1
  br i1 %33, label %34, label %35

34:                                               ; preds = %27
  br label %60

35:                                               ; preds = %27
  %36 = load ptr, ptr %3, align 8, !tbaa !15
  %37 = load i32, ptr %6, align 4, !tbaa !36
  %38 = call ptr @X509_REQ_get_attr(ptr noundef %36, i32 noundef %37)
  store ptr %38, ptr %4, align 8, !tbaa !45
  %39 = load ptr, ptr %4, align 8, !tbaa !45
  %40 = getelementptr inbounds nuw %struct.x509_attributes_st, ptr %39, i32 0, i32 1
  %41 = load i32, ptr %40, align 8, !tbaa !47
  %42 = icmp ne i32 %41, 0
  br i1 %42, label %43, label %47

43:                                               ; preds = %35
  %44 = load ptr, ptr %4, align 8, !tbaa !45
  %45 = getelementptr inbounds nuw %struct.x509_attributes_st, ptr %44, i32 0, i32 2
  %46 = load ptr, ptr %45, align 8, !tbaa !35
  store ptr %46, ptr %5, align 8, !tbaa !43
  br label %59

47:                                               ; preds = %35
  %48 = load ptr, ptr %4, align 8, !tbaa !45
  %49 = getelementptr inbounds nuw %struct.x509_attributes_st, ptr %48, i32 0, i32 2
  %50 = load ptr, ptr %49, align 8, !tbaa !35
  %51 = call i64 @sk_num(ptr noundef %50)
  %52 = icmp ne i64 %51, 0
  br i1 %52, label %53, label %58

53:                                               ; preds = %47
  %54 = load ptr, ptr %4, align 8, !tbaa !45
  %55 = getelementptr inbounds nuw %struct.x509_attributes_st, ptr %54, i32 0, i32 2
  %56 = load ptr, ptr %55, align 8, !tbaa !35
  %57 = call ptr @sk_value(ptr noundef %56, i64 noundef 0)
  store ptr %57, ptr %5, align 8, !tbaa !43
  br label %58

58:                                               ; preds = %53, %47
  br label %59

59:                                               ; preds = %58, %43
  br label %63

60:                                               ; preds = %34
  %61 = load ptr, ptr %7, align 8, !tbaa !41
  %62 = getelementptr inbounds nuw i32, ptr %61, i32 1
  store ptr %62, ptr %7, align 8, !tbaa !41
  br label %23, !llvm.loop !50

63:                                               ; preds = %59, %23
  %64 = load ptr, ptr %5, align 8, !tbaa !43
  %65 = icmp ne ptr %64, null
  br i1 %65, label %66, label %71

66:                                               ; preds = %63
  %67 = load ptr, ptr %5, align 8, !tbaa !43
  %68 = getelementptr inbounds nuw %struct.asn1_type_st, ptr %67, i32 0, i32 0
  %69 = load i32, ptr %68, align 8, !tbaa !52
  %70 = icmp ne i32 %69, 16
  br i1 %70, label %71, label %72

71:                                               ; preds = %66, %63
  store ptr null, ptr %2, align 8
  store i32 1, ptr %9, align 4
  br label %85

72:                                               ; preds = %66
  %73 = load ptr, ptr %5, align 8, !tbaa !43
  %74 = getelementptr inbounds nuw %struct.asn1_type_st, ptr %73, i32 0, i32 1
  %75 = load ptr, ptr %74, align 8, !tbaa !35
  %76 = getelementptr inbounds nuw %struct.asn1_string_st, ptr %75, i32 0, i32 2
  %77 = load ptr, ptr %76, align 8, !tbaa !34
  store ptr %77, ptr %8, align 8, !tbaa !54
  %78 = load ptr, ptr %5, align 8, !tbaa !43
  %79 = getelementptr inbounds nuw %struct.asn1_type_st, ptr %78, i32 0, i32 1
  %80 = load ptr, ptr %79, align 8, !tbaa !35
  %81 = getelementptr inbounds nuw %struct.asn1_string_st, ptr %80, i32 0, i32 0
  %82 = load i32, ptr %81, align 8, !tbaa !32
  %83 = sext i32 %82 to i64
  %84 = call ptr @ASN1_item_d2i(ptr noundef null, ptr noundef %8, i64 noundef %83, ptr noundef @X509_EXTENSIONS_it)
  store ptr %84, ptr %2, align 8
  store i32 1, ptr %9, align 4
  br label %85

85:                                               ; preds = %72, %71, %20
  call void @llvm.lifetime.end.p0(i64 8, ptr %8) #4
  call void @llvm.lifetime.end.p0(i64 8, ptr %7) #4
  call void @llvm.lifetime.end.p0(i64 4, ptr %6) #4
  call void @llvm.lifetime.end.p0(i64 8, ptr %5) #4
  call void @llvm.lifetime.end.p0(i64 8, ptr %4) #4
  %86 = load ptr, ptr %2, align 8
  ret ptr %86
}