; Function Attrs: nounwind uwtable
define hidden ptr @X509_REQ_get_extensions(ptr noundef readonly captures(address_is_null) %0) local_unnamed_addr #0 {
  %2 = alloca ptr, align 8
  call void @llvm.lifetime.start.p0(i64 8, ptr nonnull %2) #7
  %3 = icmp eq ptr %0, null
  br i1 %3, label %.thread, label %4

4:                                                ; preds = %1
  %5 = load ptr, ptr %0, align 8, !tbaa !6
  %6 = icmp ne ptr %5, null
  %7 = load ptr, ptr @ext_nids, align 8
  %8 = icmp ne ptr %7, null
  %or.cond = select i1 %6, i1 %8, i1 false
  br i1 %or.cond, label %.preheader, label %.thread

.preheader:                                       ; preds = %4
  %9 = load i32, ptr %7, align 4, !tbaa !33
  %.not30 = icmp eq i32 %9, 0
  br i1 %.not30, label %.thread, label %.lr.ph

10:                                               ; preds = %.lr.ph
  %11 = getelementptr inbounds nuw i8, ptr %.031, i64 4
  %12 = load i32, ptr %11, align 4, !tbaa !33
  %.not = icmp eq i32 %12, 0
  br i1 %.not, label %.thread, label %.lr.ph, !llvm.loop !34

.lr.ph:                                           ; preds = %.preheader, %10
  %13 = phi i32 [ %12, %10 ], [ %9, %.preheader ]
  %.031 = phi ptr [ %11, %10 ], [ %7, %.preheader ]
  %14 = load ptr, ptr %0, align 8, !tbaa !6
  %15 = getelementptr inbounds nuw i8, ptr %14, i64 48
  %16 = load ptr, ptr %15, align 8, !tbaa !36
  %17 = tail call i32 @X509at_get_attr_by_NID(ptr noundef %16, i32 noundef %13, i32 noundef -1) #7
  %18 = icmp eq i32 %17, -1
  br i1 %18, label %10, label %19

19:                                               ; preds = %.lr.ph
  %20 = load ptr, ptr %0, align 8, !tbaa !6
  %21 = getelementptr inbounds nuw i8, ptr %20, i64 48
  %22 = load ptr, ptr %21, align 8, !tbaa !36
  %23 = tail call ptr @X509at_get_attr(ptr noundef %22, i32 noundef %17) #7
  %24 = getelementptr inbounds nuw i8, ptr %23, i64 8
  %25 = load i32, ptr %24, align 8, !tbaa !37
  %.not24 = icmp eq i32 %25, 0
  %26 = getelementptr inbounds nuw i8, ptr %23, i64 16
  %27 = load ptr, ptr %26, align 8, !tbaa !26
  br i1 %.not24, label %28, label %33

28:                                               ; preds = %19
  %29 = tail call i64 @sk_num(ptr noundef %27) #7
  %.not25 = icmp eq i64 %29, 0
  br i1 %.not25, label %.thread, label %30

30:                                               ; preds = %28
  %31 = load ptr, ptr %26, align 8, !tbaa !26
  %32 = tail call ptr @sk_value(ptr noundef %31, i64 noundef 0) #7
  br label %33

33:                                               ; preds = %19, %30
  %.019 = phi ptr [ %32, %30 ], [ %27, %19 ]
  %.not26 = icmp eq ptr %.019, null
  br i1 %.not26, label %.thread, label %34

34:                                               ; preds = %33
  %35 = load i32, ptr %.019, align 8, !tbaa !40
  %.not27 = icmp eq i32 %35, 16
  br i1 %.not27, label %36, label %.thread

36:                                               ; preds = %34
  %37 = getelementptr inbounds nuw i8, ptr %.019, i64 8
  %38 = load ptr, ptr %37, align 8, !tbaa !26
  %39 = getelementptr inbounds nuw i8, ptr %38, i64 8
  %40 = load ptr, ptr %39, align 8, !tbaa !25
  store ptr %40, ptr %2, align 8, !tbaa !42
  %41 = load i32, ptr %38, align 8, !tbaa !23
  %42 = sext i32 %41 to i64
  %43 = call ptr @ASN1_item_d2i(ptr noundef null, ptr noundef nonnull %2, i64 noundef %42, ptr noundef nonnull @X509_EXTENSIONS_it) #7
  br label %.thread

.thread:                                          ; preds = %10, %.preheader, %28, %33, %34, %1, %4, %36
  %.018 = phi ptr [ %43, %36 ], [ null, %4 ], [ null, %1 ], [ null, %34 ], [ null, %33 ], [ null, %28 ], [ null, %.preheader ], [ null, %10 ]
  call void @llvm.lifetime.end.p0(i64 8, ptr nonnull %2) #7
  ret ptr %.018
}